target datalayout = "e-m:e-p270:32:32-p271:32:32-p272:64:64-i64:64-i128:128-f80:128-n8:16:32:64-S128"
target triple = "x86_64-pc-linux-gnu"

; Function Attrs: nounwind uwtable
define internal i64 @do_search_mark(ptr noundef %0, ptr noundef %1) #0 {
  %3 = alloca i64, align 8
  %4 = alloca ptr, align 8
  %5 = alloca ptr, align 8
  store ptr %0, ptr %4, align 8
  store ptr %1, ptr %5, align 8
  br label %6

6:                                                ; preds = %32, %2
  %7 = load ptr, ptr %4, align 8
  %8 = icmp ne ptr %7, null
  br i1 %8, label %9, label %37

9:                                                ; preds = %6
  %10 = load ptr, ptr %4, align 8
  %11 = getelementptr inbounds i64, ptr %10, i64 1
  %12 = load i64, ptr %11, align 8
  switch i64 %12, label %27 [
    i64 1, label %13
    i64 0, label %14
  ]

13:                                               ; preds = %9
  br label %30

14:                                               ; preds = %9
  %15 = load ptr, ptr %5, align 8
  %16 = load ptr, ptr %4, align 8
  %17 = getelementptr inbounds i64, ptr %16, i64 2
  %18 = load i64, ptr %17, align 8
  %19 = inttoptr i64 %18 to ptr
  %20 = call i32 @_pcre2_strcmp_8(ptr noundef %15, ptr noundef %19)
  %21 = icmp eq i32 %20, 0
  br i1 %21, label %22, label %26

22:                                               ; preds = %14
  %23 = load ptr, ptr %4, align 8
  %24 = getelementptr inbounds i64, ptr %23, i64 3
  %25 = load i64, ptr %24, align 8
  store i64 %25, ptr %3, align 8
  br label %38

26:                                               ; preds = %14
  br label %30

27:                                               ; preds = %9
  br label %28

28:                                               ; preds = %27
  br label %29

29:                                               ; preds = %28
  br label %30

30:                                               ; preds = %29, %26, %13
  br label %31

31:                                               ; preds = %30
  br label %32

32:                                               ; preds = %31
  %33 = load ptr, ptr %4, align 8
  %34 = getelementptr inbounds i64, ptr %33, i64 0
  %35 = load i64, ptr %34, align 8
  %36 = inttoptr i64 %35 to ptr
  store ptr %36, ptr %4, align 8
  br label %6

37:                                               ; preds = %6
  store i64 0, ptr %3, align 8
  br label %38

38:                                               ; preds = %37, %22
  %39 = load i64, ptr %3, align 8
  ret i64 %39
}