; Function Attrs: nounwind uwtable
define internal i64 @do_search_mark(ptr noundef readonly %0, ptr noundef %1) #0 {
  %.not8 = icmp eq ptr %0, null
  br i1 %.not8, label %.loopexit, label %.lr.ph

.lr.ph:                                           ; preds = %2, %14
  %.069 = phi ptr [ %16, %14 ], [ %0, %2 ]
  %3 = getelementptr inbounds i8, ptr %.069, i64 8
  %4 = load i64, ptr %3, align 8
  %cond = icmp eq i64 %4, 0
  br i1 %cond, label %5, label %14

5:                                                ; preds = %.lr.ph
  %6 = getelementptr inbounds i8, ptr %.069, i64 16
  %7 = load i64, ptr %6, align 8
  %8 = inttoptr i64 %7 to ptr
  %9 = tail call i32 @_pcre2_strcmp_8(ptr noundef %1, ptr noundef %8) #18
  %10 = icmp eq i32 %9, 0
  br i1 %10, label %11, label %14

11:                                               ; preds = %5
  %12 = getelementptr inbounds i8, ptr %.069, i64 24
  %13 = load i64, ptr %12, align 8
  br label %.loopexit

14:                                               ; preds = %.lr.ph, %5
  %15 = load i64, ptr %.069, align 8
  %16 = inttoptr i64 %15 to ptr
  %.not = icmp eq i64 %15, 0
  br i1 %.not, label %.loopexit, label %.lr.ph

.loopexit:                                        ; preds = %14, %2, %11
  %.0 = phi i64 [ %13, %11 ], [ 0, %2 ], [ 0, %14 ]
  ret i64 %.0
}